; Function Attrs: mustprogress uwtable
define internal void @_ZN2cv3dnnL7sigmoidERKNS_3MatERS1_(ptr noundef nonnull align 8 dereferenceable(96) %0, ptr noundef nonnull align 8 dereferenceable(96) %1) #3 personality ptr @__gxx_personality_v0 {
  %3 = alloca %"class.cv::_InputArray", align 8
  %4 = alloca %"class.cv::MatExpr", align 8
  %5 = alloca %"class.cv::_OutputArray", align 8
  %6 = alloca %"class.cv::_InputArray", align 8
  %7 = alloca %"class.cv::MatExpr", align 8
  %8 = alloca %"class.cv::Scalar_", align 8
  %9 = alloca %"class.cv::_OutputArray", align 8
  call void @llvm.lifetime.start.p0(i64 24, ptr nonnull %3) #26
  call void @llvm.lifetime.start.p0(i64 352, ptr nonnull %4) #26
  call void @_ZN2cvngERKNS_3MatE(ptr dead_on_unwind nonnull writable sret(%"class.cv::MatExpr") align 8 %4, ptr noundef nonnull align 8 dereferenceable(96) %0)
  invoke void @_ZN2cv11_InputArrayC1ERKNS_7MatExprE(ptr noundef nonnull align 8 dereferenceable(24) %3, ptr noundef nonnull align 8 dereferenceable(352) %4)
          to label %10 unwind label %25

10:                                               ; preds = %2
  call void @llvm.lifetime.start.p0(i64 24, ptr nonnull %5) #26
  %11 = getelementptr inbounds nuw i8, ptr %5, i64 8
  %12 = getelementptr inbounds nuw i8, ptr %5, i64 16
  store i64 0, ptr %12, align 8
  store i32 33619968, ptr %5, align 8, !tbaa !133
  store ptr %1, ptr %11, align 8, !tbaa !136
  invoke void @_ZN2cv3expERKNS_11_InputArrayERKNS_12_OutputArrayE(ptr noundef nonnull align 8 dereferenceable(24) %3, ptr noundef nonnull align 8 dereferenceable(24) %5)
          to label %13 unwind label %27

13:                                               ; preds = %10
  call void @llvm.lifetime.end.p0(i64 24, ptr nonnull %5) #26
  %14 = getelementptr inbounds nuw i8, ptr %4, i64 208
  call void @_ZN2cv3MatD1Ev(ptr noundef nonnull align 8 dereferenceable(96) %14) #26
  %15 = getelementptr inbounds nuw i8, ptr %4, i64 112
  call void @_ZN2cv3MatD1Ev(ptr noundef nonnull align 8 dereferenceable(96) %15) #26
  %16 = getelementptr inbounds nuw i8, ptr %4, i64 16
  call void @_ZN2cv3MatD1Ev(ptr noundef nonnull align 8 dereferenceable(96) %16) #26
  call void @llvm.lifetime.end.p0(i64 352, ptr nonnull %4) #26
  call void @llvm.lifetime.end.p0(i64 24, ptr nonnull %3) #26
  call void @llvm.lifetime.start.p0(i64 24, ptr nonnull %6) #26
  call void @llvm.lifetime.start.p0(i64 352, ptr nonnull %7) #26
  call void @llvm.lifetime.start.p0(i64 32, ptr nonnull %8) #26
  store double 1.000000e+00, ptr %8, align 8, !tbaa !137
  %17 = getelementptr inbounds nuw i8, ptr %8, i64 8
  call void @llvm.memset.p0.i64(ptr noundef nonnull align 8 dereferenceable(24) %17, i8 0, i64 24, i1 false)
  call void @_ZN2cvplERKNS_7Scalar_IdEERKNS_3MatE(ptr dead_on_unwind nonnull writable sret(%"class.cv::MatExpr") align 8 %7, ptr noundef nonnull align 8 dereferenceable(32) %8, ptr noundef nonnull align 8 dereferenceable(96) %1)
  invoke void @_ZN2cv11_InputArrayC1ERKNS_7MatExprE(ptr noundef nonnull align 8 dereferenceable(24) %6, ptr noundef nonnull align 8 dereferenceable(352) %7)
          to label %18 unwind label %30

18:                                               ; preds = %13
  call void @llvm.lifetime.start.p0(i64 24, ptr nonnull %9) #26
  %19 = getelementptr inbounds nuw i8, ptr %9, i64 8
  %20 = getelementptr inbounds nuw i8, ptr %9, i64 16
  store i64 0, ptr %20, align 8
  store i32 33619968, ptr %9, align 8, !tbaa !133
  store ptr %1, ptr %19, align 8, !tbaa !136
  invoke void @_ZN2cv3powERKNS_11_InputArrayEdRKNS_12_OutputArrayE(ptr noundef nonnull align 8 dereferenceable(24) %6, double noundef -1.000000e+00, ptr noundef nonnull align 8 dereferenceable(24) %9)
          to label %21 unwind label %32

21:                                               ; preds = %18
  call void @llvm.lifetime.end.p0(i64 24, ptr nonnull %9) #26
  %22 = getelementptr inbounds nuw i8, ptr %7, i64 208
  call void @_ZN2cv3MatD1Ev(ptr noundef nonnull align 8 dereferenceable(96) %22) #26
  %23 = getelementptr inbounds nuw i8, ptr %7, i64 112
  call void @_ZN2cv3MatD1Ev(ptr noundef nonnull align 8 dereferenceable(96) %23) #26
  %24 = getelementptr inbounds nuw i8, ptr %7, i64 16
  call void @_ZN2cv3MatD1Ev(ptr noundef nonnull align 8 dereferenceable(96) %24) #26
  call void @llvm.lifetime.end.p0(i64 32, ptr nonnull %8) #26
  call void @llvm.lifetime.end.p0(i64 352, ptr nonnull %7) #26
  call void @llvm.lifetime.end.p0(i64 24, ptr nonnull %6) #26
  ret void

25:                                               ; preds = %2
  %26 = landingpad { ptr, i32 }
          cleanup
  br label %29

27:                                               ; preds = %10
  %28 = landingpad { ptr, i32 }
          cleanup
  call void @llvm.lifetime.end.p0(i64 24, ptr nonnull %5) #26
  br label %29

29:                                               ; preds = %27, %25
  %.pn.pn = phi { ptr, i32 } [ %28, %27 ], [ %26, %25 ]
  call void @_ZN2cv7MatExprD2Ev(ptr noundef nonnull align 8 dereferenceable(352) %4) #26
  call void @llvm.lifetime.end.p0(i64 352, ptr nonnull %4) #26
  call void @llvm.lifetime.end.p0(i64 24, ptr nonnull %3) #26
  br label %35

30:                                               ; preds = %13
  %31 = landingpad { ptr, i32 }
          cleanup
  br label %34

32:                                               ; preds = %18
  %33 = landingpad { ptr, i32 }
          cleanup
  call void @llvm.lifetime.end.p0(i64 24, ptr nonnull %9) #26
  br label %34

34:                                               ; preds = %32, %30
  %.pn12.pn = phi { ptr, i32 } [ %33, %32 ], [ %31, %30 ]
  call void @_ZN2cv7MatExprD2Ev(ptr noundef nonnull align 8 dereferenceable(352) %7) #26
  call void @llvm.lifetime.end.p0(i64 32, ptr nonnull %8) #26
  call void @llvm.lifetime.end.p0(i64 352, ptr nonnull %7) #26
  call void @llvm.lifetime.end.p0(i64 24, ptr nonnull %6) #26
  br label %35

35:                                               ; preds = %34, %29
  %.pn12.pn.pn = phi { ptr, i32 } [ %.pn12.pn, %34 ], [ %.pn.pn, %29 ]
  resume { ptr, i32 } %.pn12.pn.pn
}